target datalayout = "e-m:e-p270:32:32-p271:32:32-p272:64:64-i64:64-i128:128-f80:128-n8:16:32:64-S128"
target triple = "x86_64-pc-linux-gnu"

%"class.cv::AutoBuffer" = type { ptr, i64, [136 x double] }
%"class.cv::Mat" = type { i32, i32, i32, i32, ptr, ptr, ptr, ptr, ptr, ptr, %"struct.cv::MatSize", %"struct.cv::MatStep" }
%"struct.cv::MatSize" = type { ptr }
%"struct.cv::MatStep" = type { ptr, [2 x i64] }
%"class.cv::_InputArray" = type { i32, ptr, %"class.cv::Size_" }
%"class.cv::Size_" = type { i32, i32 }

; Function Attrs: noinline noreturn nounwind uwtable
define linkonce_odr hidden void @__clang_call_terminate(ptr noundef %0) #9 comdat {
  %2 = call ptr @__cxa_begin_catch(ptr %0) #13
  call void @_ZSt9terminatev() #15
  unreachable
}

; Function Attrs: inlinehint mustprogress nounwind uwtable
define linkonce_odr hidden void @_ZN2cv10AutoBufferIdLm136EE10deallocateEv(ptr noundef nonnull align 8 dereferenceable(1104) %0) #7 comdat align 2 {
  %2 = alloca ptr, align 8
  store ptr %0, ptr %2, align 8, !tbaa !32
  %3 = load ptr, ptr %2, align 8
  %4 = getelementptr inbounds nuw %"class.cv::AutoBuffer", ptr %3, i32 0, i32 0
  %5 = load ptr, ptr %4, align 8, !tbaa !34
  %6 = getelementptr inbounds nuw %"class.cv::AutoBuffer", ptr %3, i32 0, i32 2
  %7 = getelementptr inbounds [136 x double], ptr %6, i64 0, i64 0
  %8 = icmp ne ptr %5, %7
  br i1 %8, label %9, label %19

9:                                                ; preds = %1
  %10 = getelementptr inbounds nuw %"class.cv::AutoBuffer", ptr %3, i32 0, i32 0
  %11 = load ptr, ptr %10, align 8, !tbaa !34
  %12 = icmp eq ptr %11, null
  br i1 %12, label %14, label %13

13:                                               ; preds = %9
  call void @_ZdaPv(ptr noundef %11) #16
  br label %14

14:                                               ; preds = %13, %9
  %15 = getelementptr inbounds nuw %"class.cv::AutoBuffer", ptr %3, i32 0, i32 2
  %16 = getelementptr inbounds [136 x double], ptr %15, i64 0, i64 0
  %17 = getelementptr inbounds nuw %"class.cv::AutoBuffer", ptr %3, i32 0, i32 0
  store ptr %16, ptr %17, align 8, !tbaa !34
  %18 = getelementptr inbounds nuw %"class.cv::AutoBuffer", ptr %3, i32 0, i32 1
  store i64 136, ptr %18, align 8, !tbaa !38
  br label %19

19:                                               ; preds = %14, %1
  ret void
}

; Function Attrs: inlinehint mustprogress nounwind uwtable
define linkonce_odr hidden void @_ZN2cv11_InputArray4initEiPKv(ptr noundef nonnull align 8 dereferenceable(24) %0, i32 noundef %1, ptr noundef %2) #7 comdat align 2 {
  %4 = alloca ptr, align 8
  %5 = alloca i32, align 4
  %6 = alloca ptr, align 8
  store ptr %0, ptr %4, align 8, !tbaa !3
  store i32 %1, ptr %5, align 4, !tbaa !8
  store ptr %2, ptr %6, align 8, !tbaa !31
  %7 = load ptr, ptr %4, align 8
  %8 = load i32, ptr %5, align 4, !tbaa !8
  %9 = getelementptr inbounds nuw %"class.cv::_InputArray", ptr %7, i32 0, i32 0
  store i32 %8, ptr %9, align 8, !tbaa !46
  %10 = load ptr, ptr %6, align 8, !tbaa !31
  %11 = getelementptr inbounds nuw %"class.cv::_InputArray", ptr %7, i32 0, i32 1
  store ptr %10, ptr %11, align 8, !tbaa !48
  ret void
}

; Function Attrs: inlinehint mustprogress nounwind uwtable
define linkonce_odr hidden void @_ZN2cv5Size_IiEC2Ev(ptr noundef nonnull align 4 dereferenceable(8) %0) unnamed_addr #7 comdat align 2 {
  %2 = alloca ptr, align 8
  store ptr %0, ptr %2, align 8, !tbaa !41
  %3 = load ptr, ptr %2, align 8
  %4 = getelementptr inbounds nuw %"class.cv::Size_", ptr %3, i32 0, i32 0
  store i32 0, ptr %4, align 4, !tbaa !43
  %5 = getelementptr inbounds nuw %"class.cv::Size_", ptr %3, i32 0, i32 1
  store i32 0, ptr %5, align 4, !tbaa !45
  ret void
}

; Function Attrs: inlinehint mustprogress nounwind uwtable
define linkonce_odr hidden void @_ZN2cv10AutoBufferIdLm136EED2Ev(ptr noundef nonnull align 8 dereferenceable(1104) %0) unnamed_addr #7 comdat align 2 personality ptr @__gxx_personality_v0 {
  %2 = alloca ptr, align 8
  store ptr %0, ptr %2, align 8, !tbaa !32
  %3 = load ptr, ptr %2, align 8
  invoke void @_ZN2cv10AutoBufferIdLm136EE10deallocateEv(ptr noundef nonnull align 8 dereferenceable(1104) %3)
          to label %4 unwind label %5

4:                                                ; preds = %1
  ret void

5:                                                ; preds = %1
  %6 = landingpad { ptr, i32 }
          catch ptr null
  %7 = extractvalue { ptr, i32 } %6, 0
  call void @__clang_call_terminate(ptr %7) #15
  unreachable
}

; Function Attrs: inlinehint mustprogress nounwind uwtable
define linkonce_odr hidden void @_ZN2cv11_InputArrayD2Ev(ptr noundef nonnull align 8 dereferenceable(24) %0) unnamed_addr #7 comdat align 2 {
  %2 = alloca ptr, align 8
  store ptr %0, ptr %2, align 8, !tbaa !3
  ret void
}

; Function Attrs: inlinehint mustprogress uwtable
define linkonce_odr hidden void @_ZN2cv11_InputArrayC2ERKNS_3MatE(ptr noundef nonnull align 8 dereferenceable(24) %0, ptr noundef nonnull align 8 dereferenceable(96) %1) unnamed_addr #8 comdat align 2 {
  %3 = alloca ptr, align 8
  %4 = alloca ptr, align 8
  store ptr %0, ptr %3, align 8, !tbaa !3
  store ptr %1, ptr %4, align 8, !tbaa !39
  %5 = load ptr, ptr %3, align 8
  %6 = getelementptr inbounds nuw %"class.cv::_InputArray", ptr %5, i32 0, i32 2
  call void @_ZN2cv5Size_IiEC2Ev(ptr noundef nonnull align 4 dereferenceable(8) %6)
  %7 = load ptr, ptr %4, align 8, !tbaa !39
  call void @_ZN2cv11_InputArray4initEiPKv(ptr noundef nonnull align 8 dereferenceable(24) %5, i32 noundef 16842752, ptr noundef %7)
  ret void
}

; Function Attrs: inlinehint mustprogress nounwind uwtable
define linkonce_odr hidden void @_ZN2cv10AutoBufferIdLm136EEC2Ev(ptr noundef nonnull align 8 dereferenceable(1104) %0) unnamed_addr #7 comdat align 2 {
  %2 = alloca ptr, align 8
  store ptr %0, ptr %2, align 8, !tbaa !32
  %3 = load ptr, ptr %2, align 8
  %4 = getelementptr inbounds nuw %"class.cv::AutoBuffer", ptr %3, i32 0, i32 2
  %5 = getelementptr inbounds [136 x double], ptr %4, i64 0, i64 0
  %6 = getelementptr inbounds nuw %"class.cv::AutoBuffer", ptr %3, i32 0, i32 0
  store ptr %5, ptr %6, align 8, !tbaa !34
  %7 = getelementptr inbounds nuw %"class.cv::AutoBuffer", ptr %3, i32 0, i32 1
  store i64 136, ptr %7, align 8, !tbaa !38
  ret void
}

; Function Attrs: mustprogress uwtable
define double @cvMatchShapes(ptr noundef %0, ptr noundef %1, i32 noundef %2, double noundef %3) #0 personality ptr @__gxx_personality_v0 {
  %5 = alloca ptr, align 8
  %6 = alloca ptr, align 8
  %7 = alloca i32, align 4
  %8 = alloca double, align 8
  %9 = alloca %"class.cv::AutoBuffer", align 8
  %10 = alloca %"class.cv::AutoBuffer", align 8
  %11 = alloca ptr, align 8
  %12 = alloca i32, align 4
  %13 = alloca %"class.cv::Mat", align 8
  %14 = alloca %"class.cv::Mat", align 8
  %15 = alloca %"class.cv::_InputArray", align 8
  %16 = alloca %"class.cv::_InputArray", align 8
  store ptr %0, ptr %5, align 8, !tbaa !31
  store ptr %1, ptr %6, align 8, !tbaa !31
  store i32 %2, ptr %7, align 4, !tbaa !8
  store double %3, ptr %8, align 8, !tbaa !10
  call void @llvm.lifetime.start.p0(i64 1104, ptr %9) #13
  call void @_ZN2cv10AutoBufferIdLm136EEC2Ev(ptr noundef nonnull align 8 dereferenceable(1104) %9)
  call void @llvm.lifetime.start.p0(i64 1104, ptr %10) #13
  invoke void @_ZN2cv10AutoBufferIdLm136EEC2Ev(ptr noundef nonnull align 8 dereferenceable(1104) %10)
          to label %17 unwind label %28

17:                                               ; preds = %4
  call void @llvm.lifetime.start.p0(i64 96, ptr %13) #13
  %18 = load ptr, ptr %5, align 8, !tbaa !31
  invoke void @_ZN2cv10cvarrToMatEPKvbbiPNS_10AutoBufferIdLm136EEE(ptr dead_on_unwind writable sret(%"class.cv::Mat") align 8 %13, ptr noundef %18, i1 noundef zeroext false, i1 noundef zeroext false, i32 noundef 0, ptr noundef %9)
          to label %19 unwind label %32

19:                                               ; preds = %17
  call void @llvm.lifetime.start.p0(i64 96, ptr %14) #13
  %20 = load ptr, ptr %6, align 8, !tbaa !31
  invoke void @_ZN2cv10cvarrToMatEPKvbbiPNS_10AutoBufferIdLm136EEE(ptr dead_on_unwind writable sret(%"class.cv::Mat") align 8 %14, ptr noundef %20, i1 noundef zeroext false, i1 noundef zeroext false, i32 noundef 0, ptr noundef %10)
          to label %21 unwind label %36

21:                                               ; preds = %19
  call void @llvm.lifetime.start.p0(i64 24, ptr %15) #13
  invoke void @_ZN2cv11_InputArrayC2ERKNS_3MatE(ptr noundef nonnull align 8 dereferenceable(24) %15, ptr noundef nonnull align 8 dereferenceable(96) %13)
          to label %22 unwind label %40

22:                                               ; preds = %21
  call void @llvm.lifetime.start.p0(i64 24, ptr %16) #13
  invoke void @_ZN2cv11_InputArrayC2ERKNS_3MatE(ptr noundef nonnull align 8 dereferenceable(24) %16, ptr noundef nonnull align 8 dereferenceable(96) %14)
          to label %23 unwind label %44

23:                                               ; preds = %22
  %24 = load i32, ptr %7, align 4, !tbaa !8
  %25 = load double, ptr %8, align 8, !tbaa !10
  %26 = invoke noundef double @_ZN2cv11matchShapesERKNS_11_InputArrayES2_id(ptr noundef nonnull align 8 dereferenceable(24) %15, ptr noundef nonnull align 8 dereferenceable(24) %16, i32 noundef %24, double noundef %25)
          to label %27 unwind label %48

27:                                               ; preds = %23
  call void @_ZN2cv11_InputArrayD2Ev(ptr noundef nonnull align 8 dereferenceable(24) %16) #13
  call void @llvm.lifetime.end.p0(i64 24, ptr %16) #13
  call void @_ZN2cv11_InputArrayD2Ev(ptr noundef nonnull align 8 dereferenceable(24) %15) #13
  call void @llvm.lifetime.end.p0(i64 24, ptr %15) #13
  call void @_ZN2cv3MatD1Ev(ptr noundef nonnull align 8 dereferenceable(96) %14) #13
  call void @llvm.lifetime.end.p0(i64 96, ptr %14) #13
  call void @_ZN2cv3MatD1Ev(ptr noundef nonnull align 8 dereferenceable(96) %13) #13
  call void @llvm.lifetime.end.p0(i64 96, ptr %13) #13
  call void @_ZN2cv10AutoBufferIdLm136EED2Ev(ptr noundef nonnull align 8 dereferenceable(1104) %10) #13
  call void @llvm.lifetime.end.p0(i64 1104, ptr %10) #13
  call void @_ZN2cv10AutoBufferIdLm136EED2Ev(ptr noundef nonnull align 8 dereferenceable(1104) %9) #13
  call void @llvm.lifetime.end.p0(i64 1104, ptr %9) #13
  ret double %26

28:                                               ; preds = %4
  %29 = landingpad { ptr, i32 }
          cleanup
  %30 = extractvalue { ptr, i32 } %29, 0
  store ptr %30, ptr %11, align 8
  %31 = extractvalue { ptr, i32 } %29, 1
  store i32 %31, ptr %12, align 4
  br label %56

32:                                               ; preds = %17
  %33 = landingpad { ptr, i32 }
          cleanup
  %34 = extractvalue { ptr, i32 } %33, 0
  store ptr %34, ptr %11, align 8
  %35 = extractvalue { ptr, i32 } %33, 1
  store i32 %35, ptr %12, align 4
  br label %55

36:                                               ; preds = %19
  %37 = landingpad { ptr, i32 }
          cleanup
  %38 = extractvalue { ptr, i32 } %37, 0
  store ptr %38, ptr %11, align 8
  %39 = extractvalue { ptr, i32 } %37, 1
  store i32 %39, ptr %12, align 4
  br label %54

40:                                               ; preds = %21
  %41 = landingpad { ptr, i32 }
          cleanup
  %42 = extractvalue { ptr, i32 } %41, 0
  store ptr %42, ptr %11, align 8
  %43 = extractvalue { ptr, i32 } %41, 1
  store i32 %43, ptr %12, align 4
  br label %53

44:                                               ; preds = %22
  %45 = landingpad { ptr, i32 }
          cleanup
  %46 = extractvalue { ptr, i32 } %45, 0
  store ptr %46, ptr %11, align 8
  %47 = extractvalue { ptr, i32 } %45, 1
  store i32 %47, ptr %12, align 4
  br label %52

48:                                               ; preds = %23
  %49 = landingpad { ptr, i32 }
          cleanup
  %50 = extractvalue { ptr, i32 } %49, 0
  store ptr %50, ptr %11, align 8
  %51 = extractvalue { ptr, i32 } %49, 1
  store i32 %51, ptr %12, align 4
  call void @_ZN2cv11_InputArrayD2Ev(ptr noundef nonnull align 8 dereferenceable(24) %16) #13
  br label %52

52:                                               ; preds = %48, %44
  call void @llvm.lifetime.end.p0(i64 24, ptr %16) #13
  call void @_ZN2cv11_InputArrayD2Ev(ptr noundef nonnull align 8 dereferenceable(24) %15) #13
  br label %53

53:                                               ; preds = %52, %40
  call void @llvm.lifetime.end.p0(i64 24, ptr %15) #13
  call void @_ZN2cv3MatD1Ev(ptr noundef nonnull align 8 dereferenceable(96) %14) #13
  br label %54

54:                                               ; preds = %53, %36
  call void @llvm.lifetime.end.p0(i64 96, ptr %14) #13
  call void @_ZN2cv3MatD1Ev(ptr noundef nonnull align 8 dereferenceable(96) %13) #13
  br label %55

55:                                               ; preds = %54, %32
  call void @llvm.lifetime.end.p0(i64 96, ptr %13) #13
  call void @_ZN2cv10AutoBufferIdLm136EED2Ev(ptr noundef nonnull align 8 dereferenceable(1104) %10) #13
  br label %56

56:                                               ; preds = %55, %28
  call void @llvm.lifetime.end.p0(i64 1104, ptr %10) #13
  call void @_ZN2cv10AutoBufferIdLm136EED2Ev(ptr noundef nonnull align 8 dereferenceable(1104) %9) #13
  call void @llvm.lifetime.end.p0(i64 1104, ptr %9) #13
  br label %57

57:                                               ; preds = %56
  %58 = load ptr, ptr %11, align 8
  %59 = load i32, ptr %12, align 4
  %60 = insertvalue { ptr, i32 } poison, ptr %58, 0
  %61 = insertvalue { ptr, i32 } %60, i32 %59, 1
  resume { ptr, i32 } %61
}