; Function Attrs: mustprogress uwtable
define noundef double @cvMatchShapes(ptr noundef %0, ptr noundef %1, i32 noundef %2, double noundef %3) local_unnamed_addr #0 personality ptr @__gxx_personality_v0 {
  %5 = alloca %"class.cv::AutoBuffer", align 8
  %6 = alloca %"class.cv::AutoBuffer", align 8
  %7 = alloca %"class.cv::Mat", align 8
  %8 = alloca %"class.cv::Mat", align 8
  %9 = alloca %"class.cv::_InputArray", align 8
  %10 = alloca %"class.cv::_InputArray", align 8
  call void @llvm.lifetime.start.p0(i64 1104, ptr nonnull %5) #12
  %11 = getelementptr inbounds nuw i8, ptr %5, i64 16
  store ptr %11, ptr %5, align 8, !tbaa !23
  %12 = getelementptr inbounds nuw i8, ptr %5, i64 8
  store i64 136, ptr %12, align 8, !tbaa !26
  call void @llvm.lifetime.start.p0(i64 1104, ptr nonnull %6) #12
  %13 = getelementptr inbounds nuw i8, ptr %6, i64 16
  store ptr %13, ptr %6, align 8, !tbaa !23
  %14 = getelementptr inbounds nuw i8, ptr %6, i64 8
  store i64 136, ptr %14, align 8, !tbaa !26
  call void @llvm.lifetime.start.p0(i64 96, ptr nonnull %7) #12
  invoke void @_ZN2cv10cvarrToMatEPKvbbiPNS_10AutoBufferIdLm136EEE(ptr dead_on_unwind nonnull writable sret(%"class.cv::Mat") align 8 %7, ptr noundef %0, i1 noundef zeroext false, i1 noundef zeroext false, i32 noundef 0, ptr noundef nonnull %5)
          to label %15 unwind label %31

15:                                               ; preds = %4
  call void @llvm.lifetime.start.p0(i64 96, ptr nonnull %8) #12
  invoke void @_ZN2cv10cvarrToMatEPKvbbiPNS_10AutoBufferIdLm136EEE(ptr dead_on_unwind nonnull writable sret(%"class.cv::Mat") align 8 %8, ptr noundef %1, i1 noundef zeroext false, i1 noundef zeroext false, i32 noundef 0, ptr noundef nonnull %6)
          to label %16 unwind label %33

16:                                               ; preds = %15
  call void @llvm.lifetime.start.p0(i64 24, ptr nonnull %9) #12
  %17 = getelementptr inbounds nuw i8, ptr %9, i64 16
  store i32 0, ptr %17, align 8, !tbaa !27
  %18 = getelementptr inbounds nuw i8, ptr %9, i64 20
  store i32 0, ptr %18, align 4, !tbaa !29
  store i32 16842752, ptr %9, align 8, !tbaa !30
  %19 = getelementptr inbounds nuw i8, ptr %9, i64 8
  store ptr %7, ptr %19, align 8, !tbaa !32
  call void @llvm.lifetime.start.p0(i64 24, ptr nonnull %10) #12
  %20 = getelementptr inbounds nuw i8, ptr %10, i64 16
  store i32 0, ptr %20, align 8, !tbaa !27
  %21 = getelementptr inbounds nuw i8, ptr %10, i64 20
  store i32 0, ptr %21, align 4, !tbaa !29
  store i32 16842752, ptr %10, align 8, !tbaa !30
  %22 = getelementptr inbounds nuw i8, ptr %10, i64 8
  store ptr %8, ptr %22, align 8, !tbaa !32
  %23 = invoke noundef double @_ZN2cv11matchShapesERKNS_11_InputArrayES2_id(ptr noundef nonnull align 8 dereferenceable(24) %9, ptr noundef nonnull align 8 dereferenceable(24) %10, i32 noundef %2, double poison)
          to label %24 unwind label %35

24:                                               ; preds = %16
  call void @llvm.lifetime.end.p0(i64 24, ptr nonnull %10) #12
  call void @llvm.lifetime.end.p0(i64 24, ptr nonnull %9) #12
  call void @_ZN2cv3MatD1Ev(ptr noundef nonnull align 8 dereferenceable(96) %8) #12
  call void @llvm.lifetime.end.p0(i64 96, ptr nonnull %8) #12
  call void @_ZN2cv3MatD1Ev(ptr noundef nonnull align 8 dereferenceable(96) %7) #12
  call void @llvm.lifetime.end.p0(i64 96, ptr nonnull %7) #12
  %25 = load ptr, ptr %6, align 8, !tbaa !23
  %.not.i.i = icmp eq ptr %25, %13
  %26 = icmp eq ptr %25, null
  %or.cond = or i1 %.not.i.i, %26
  br i1 %or.cond, label %_ZN2cv10AutoBufferIdLm136EED2Ev.exit, label %27

27:                                               ; preds = %24
  call void @_ZdaPv(ptr noundef nonnull %25) #14
  br label %_ZN2cv10AutoBufferIdLm136EED2Ev.exit

_ZN2cv10AutoBufferIdLm136EED2Ev.exit:             ; preds = %27, %24
  call void @llvm.lifetime.end.p0(i64 1104, ptr nonnull %6) #12
  %28 = load ptr, ptr %5, align 8, !tbaa !23
  %.not.i.i13 = icmp eq ptr %28, %11
  %29 = icmp eq ptr %28, null
  %or.cond19 = or i1 %.not.i.i13, %29
  br i1 %or.cond19, label %_ZN2cv10AutoBufferIdLm136EED2Ev.exit14, label %30

30:                                               ; preds = %_ZN2cv10AutoBufferIdLm136EED2Ev.exit
  call void @_ZdaPv(ptr noundef nonnull %28) #14
  br label %_ZN2cv10AutoBufferIdLm136EED2Ev.exit14

_ZN2cv10AutoBufferIdLm136EED2Ev.exit14:           ; preds = %30, %_ZN2cv10AutoBufferIdLm136EED2Ev.exit
  call void @llvm.lifetime.end.p0(i64 1104, ptr nonnull %5) #12
  ret double %23

31:                                               ; preds = %4
  %32 = landingpad { ptr, i32 }
          cleanup
  br label %38

33:                                               ; preds = %15
  %34 = landingpad { ptr, i32 }
          cleanup
  br label %37

35:                                               ; preds = %16
  %36 = landingpad { ptr, i32 }
          cleanup
  call void @llvm.lifetime.end.p0(i64 24, ptr nonnull %10) #12
  call void @llvm.lifetime.end.p0(i64 24, ptr nonnull %9) #12
  call void @_ZN2cv3MatD1Ev(ptr noundef nonnull align 8 dereferenceable(96) %8) #12
  br label %37

37:                                               ; preds = %35, %33
  %.pn.pn.pn = phi { ptr, i32 } [ %36, %35 ], [ %34, %33 ]
  call void @llvm.lifetime.end.p0(i64 96, ptr nonnull %8) #12
  call void @_ZN2cv3MatD1Ev(ptr noundef nonnull align 8 dereferenceable(96) %7) #12
  br label %38

38:                                               ; preds = %37, %31
  %.pn.pn.pn.pn = phi { ptr, i32 } [ %.pn.pn.pn, %37 ], [ %32, %31 ]
  call void @llvm.lifetime.end.p0(i64 96, ptr nonnull %7) #12
  %39 = load ptr, ptr %6, align 8, !tbaa !23
  %.not.i.i15 = icmp eq ptr %39, %13
  %40 = icmp eq ptr %39, null
  %or.cond20 = or i1 %.not.i.i15, %40
  br i1 %or.cond20, label %_ZN2cv10AutoBufferIdLm136EED2Ev.exit16, label %41

41:                                               ; preds = %38
  call void @_ZdaPv(ptr noundef nonnull %39) #14
  br label %_ZN2cv10AutoBufferIdLm136EED2Ev.exit16

_ZN2cv10AutoBufferIdLm136EED2Ev.exit16:           ; preds = %41, %38
  call void @llvm.lifetime.end.p0(i64 1104, ptr nonnull %6) #12
  %42 = load ptr, ptr %5, align 8, !tbaa !23
  %.not.i.i17 = icmp eq ptr %42, %11
  %43 = icmp eq ptr %42, null
  %or.cond21 = or i1 %.not.i.i17, %43
  br i1 %or.cond21, label %_ZN2cv10AutoBufferIdLm136EED2Ev.exit18, label %44

44:                                               ; preds = %_ZN2cv10AutoBufferIdLm136EED2Ev.exit16
  call void @_ZdaPv(ptr noundef nonnull %42) #14
  br label %_ZN2cv10AutoBufferIdLm136EED2Ev.exit18

_ZN2cv10AutoBufferIdLm136EED2Ev.exit18:           ; preds = %44, %_ZN2cv10AutoBufferIdLm136EED2Ev.exit16
  call void @llvm.lifetime.end.p0(i64 1104, ptr nonnull %5) #12
  resume { ptr, i32 } %.pn.pn.pn.pn
}